target datalayout = "e-m:e-p270:32:32-p271:32:32-p272:64:64-i64:64-i128:128-f80:128-n8:16:32:64-S128"
target triple = "x86_64-pc-linux-gnu"

%class.QString = type { %struct.QArrayDataPointer }
%struct.QArrayDataPointer = type { ptr, ptr, i64 }
%class.QObject = type { ptr, %class.QScopedPointer }
%class.QScopedPointer = type { ptr }
%struct.nstime_t = type { i64, i32 }
%class.QBrush = type { %"class.std::unique_ptr" }
%"class.std::unique_ptr" = type { %"struct.std::__uniq_ptr_data" }
%"struct.std::__uniq_ptr_data" = type { %"class.std::__uniq_ptr_impl" }
%"class.std::__uniq_ptr_impl" = type { %"class.std::tuple" }
%"class.std::tuple" = type { %"struct.std::_Tuple_impl" }
%"struct.std::_Tuple_impl" = type { %"struct.std::_Head_base.28" }
%"struct.std::_Head_base.28" = type { ptr }
%class.IOGraph = type <{ %class.QObject, i32, i32, ptr, %class.QString, %class.QString, i8, i8, i8, [5 x i8], ptr, ptr, %class.QString, %class.QString, %class.QBrush, i32, [4 x i8], %class.QString, i32, i32, %struct.nstime_t, i8, [7 x i8], %"class.std::vector", i32, [4 x i8] }>
%"class.std::vector" = type { %"struct.std::_Vector_base" }
%"struct.std::_Vector_base" = type { %"struct.std::_Vector_base<_io_graph_item_t, std::allocator<_io_graph_item_t>>::_Vector_impl" }
%"struct.std::_Vector_base<_io_graph_item_t, std::allocator<_io_graph_item_t>>::_Vector_impl" = type { %"struct.std::_Vector_base<_io_graph_item_t, std::allocator<_io_graph_item_t>>::_Vector_impl_data" }
%"struct.std::_Vector_base<_io_graph_item_t, std::allocator<_io_graph_item_t>>::_Vector_impl_data" = type { ptr, ptr, ptr }

; Function Attrs: mustprogress null_pointer_is_valid sspstrong uwtable
define void @_ZN7IOGraph7setNameERK7QString(ptr noundef align 8 dereferenceable_or_null(252) %0, ptr noundef align 8 dereferenceable(24) %1) #3 align 2 {
  %3 = alloca ptr, align 8
  %4 = alloca ptr, align 8
  store ptr %0, ptr %3, align 8
  store ptr %1, ptr %4, align 8
  %5 = load ptr, ptr %3, align 8
  %6 = load ptr, ptr %4, align 8
  %7 = getelementptr inbounds nuw %class.IOGraph, ptr %5, i32 0, i32 5
  %8 = call noundef align 8 dereferenceable(24) ptr @_ZN7QStringaSERKS_(ptr noundef align 8 dereferenceable_or_null(24) %7, ptr noundef align 8 dereferenceable(24) %6) #2
  %9 = getelementptr inbounds nuw %class.IOGraph, ptr %5, i32 0, i32 10
  %10 = load ptr, ptr %9, align 8
  %11 = icmp ne ptr %10, null
  br i1 %11, label %12, label %16

12:                                               ; preds = %2
  %13 = getelementptr inbounds nuw %class.IOGraph, ptr %5, i32 0, i32 10
  %14 = load ptr, ptr %13, align 8
  %15 = getelementptr inbounds nuw %class.IOGraph, ptr %5, i32 0, i32 5
  call void @_ZN20QCPAbstractPlottable7setNameERK7QString(ptr noundef align 8 dereferenceable_or_null(184) %14, ptr noundef align 8 dereferenceable(24) %15)
  br label %16

16:                                               ; preds = %12, %2
  %17 = getelementptr inbounds nuw %class.IOGraph, ptr %5, i32 0, i32 11
  %18 = load ptr, ptr %17, align 8
  %19 = icmp ne ptr %18, null
  br i1 %19, label %20, label %24

20:                                               ; preds = %16
  %21 = getelementptr inbounds nuw %class.IOGraph, ptr %5, i32 0, i32 11
  %22 = load ptr, ptr %21, align 8
  %23 = getelementptr inbounds nuw %class.IOGraph, ptr %5, i32 0, i32 5
  call void @_ZN20QCPAbstractPlottable7setNameERK7QString(ptr noundef align 8 dereferenceable_or_null(184) %22, ptr noundef align 8 dereferenceable(24) %23)
  br label %24

24:                                               ; preds = %20, %16
  ret void
}