; Function Attrs: mustprogress null_pointer_is_valid sspstrong uwtable
define void @_ZN7IOGraph7setNameERK7QString(ptr noundef align 8 dereferenceable_or_null(252) %0, ptr noundef align 8 dereferenceable(24) %1) local_unnamed_addr #2 align 2 {
  %3 = getelementptr inbounds nuw i8, ptr %0, i64 56
  %4 = tail call noundef align 8 dereferenceable(24) ptr @_ZN7QStringaSERKS_(ptr noundef nonnull align 8 dereferenceable_or_null(24) %3, ptr noundef align 8 dereferenceable(24) %1) #33
  %5 = getelementptr inbounds nuw i8, ptr %0, i64 88
  %6 = load ptr, ptr %5, align 8
  %.not = icmp eq ptr %6, null
  br i1 %.not, label %8, label %7

7:                                                ; preds = %2
  tail call void @_ZN20QCPAbstractPlottable7setNameERK7QString(ptr noundef nonnull align 8 dereferenceable_or_null(184) %6, ptr noundef nonnull align 8 dereferenceable(24) %3)
  br label %8

8:                                                ; preds = %7, %2
  %9 = getelementptr inbounds nuw i8, ptr %0, i64 96
  %10 = load ptr, ptr %9, align 8
  %.not3 = icmp eq ptr %10, null
  br i1 %.not3, label %12, label %11

11:                                               ; preds = %8
  tail call void @_ZN20QCPAbstractPlottable7setNameERK7QString(ptr noundef nonnull align 8 dereferenceable_or_null(184) %10, ptr noundef nonnull align 8 dereferenceable(24) %3)
  br label %12

12:                                               ; preds = %11, %8
  ret void
}